target datalayout = "e-m:e-p270:32:32-p271:32:32-p272:64:64-i64:64-i128:128-f80:128-n8:16:32:64-S128"
target triple = "x86_64-pc-linux-gnu"

%struct._fvalue_t = type { ptr, %union.anon.1 }
%union.anon.1 = type { %struct._protocol_value_t }
%struct._protocol_value_t = type { ptr, i32, ptr, i8 }

; Function Attrs: null_pointer_is_valid sspstrong uwtable
define internal i32 @bytes_bitwise_and(ptr noundef %0, ptr noundef %1, ptr noundef %2, ptr noundef %3) #0 {
  %5 = alloca i32, align 4
  %6 = alloca ptr, align 8
  %7 = alloca ptr, align 8
  %8 = alloca ptr, align 8
  %9 = alloca ptr, align 8
  %10 = alloca ptr, align 8
  %11 = alloca ptr, align 8
  %12 = alloca ptr, align 8
  %13 = alloca i64, align 8
  %14 = alloca i64, align 8
  %15 = alloca i64, align 8
  %16 = alloca i32, align 4
  %17 = alloca i64, align 8
  %18 = alloca i8, align 1
  store ptr %0, ptr %6, align 8
  store ptr %1, ptr %7, align 8
  store ptr %2, ptr %8, align 8
  store ptr %3, ptr %9, align 8
  call void @llvm.lifetime.start.p0(i64 8, ptr %10) #9
  call void @llvm.lifetime.start.p0(i64 8, ptr %11) #9
  call void @llvm.lifetime.start.p0(i64 8, ptr %12) #9
  call void @llvm.lifetime.start.p0(i64 8, ptr %13) #9
  call void @llvm.lifetime.start.p0(i64 8, ptr %14) #9
  %19 = load ptr, ptr %7, align 8
  %20 = getelementptr inbounds nuw %struct._fvalue_t, ptr %19, i32 0, i32 1
  %21 = load ptr, ptr %20, align 8
  %22 = call ptr @g_bytes_get_data(ptr noundef %21, ptr noundef %13)
  store ptr %22, ptr %11, align 8
  %23 = load ptr, ptr %8, align 8
  %24 = getelementptr inbounds nuw %struct._fvalue_t, ptr %23, i32 0, i32 1
  %25 = load ptr, ptr %24, align 8
  %26 = call ptr @g_bytes_get_data(ptr noundef %25, ptr noundef %14)
  store ptr %26, ptr %12, align 8
  call void @llvm.lifetime.start.p0(i64 8, ptr %15) #9
  %27 = load i64, ptr %13, align 8
  %28 = load i64, ptr %14, align 8
  %29 = icmp ult i64 %27, %28
  br i1 %29, label %30, label %32

30:                                               ; preds = %4
  %31 = load i64, ptr %13, align 8
  br label %34

32:                                               ; preds = %4
  %33 = load i64, ptr %14, align 8
  br label %34

34:                                               ; preds = %32, %30
  %35 = phi i64 [ %31, %30 ], [ %33, %32 ]
  store i64 %35, ptr %15, align 8
  %36 = load i64, ptr %15, align 8
  %37 = icmp eq i64 %36, 0
  br i1 %37, label %38, label %42

38:                                               ; preds = %34
  %39 = call ptr @g_bytes_new(ptr noundef null, i64 noundef 0)
  %40 = load ptr, ptr %6, align 8
  %41 = getelementptr inbounds nuw %struct._fvalue_t, ptr %40, i32 0, i32 1
  store ptr %39, ptr %41, align 8
  store i32 0, ptr %5, align 4
  store i32 1, ptr %16, align 4
  br label %74

42:                                               ; preds = %34
  %43 = load i64, ptr %15, align 8
  %44 = trunc i64 %43 to i32
  %45 = call ptr @g_byte_array_sized_new(i32 noundef %44)
  store ptr %45, ptr %10, align 8
  call void @llvm.lifetime.start.p0(i64 8, ptr %17) #9
  store i64 0, ptr %17, align 8
  br label %46

46:                                               ; preds = %66, %42
  %47 = load i64, ptr %17, align 8
  %48 = load i64, ptr %15, align 8
  %49 = icmp ult i64 %47, %48
  br i1 %49, label %51, label %50

50:                                               ; preds = %46
  store i32 2, ptr %16, align 4
  call void @llvm.lifetime.end.p0(i64 8, ptr %17) #9
  br label %69

51:                                               ; preds = %46
  call void @llvm.lifetime.start.p0(i64 1, ptr %18) #9
  %52 = load ptr, ptr %11, align 8
  %53 = load i64, ptr %17, align 8
  %54 = getelementptr i8, ptr %52, i64 %53
  %55 = load i8, ptr %54, align 1
  %56 = zext i8 %55 to i32
  %57 = load ptr, ptr %12, align 8
  %58 = load i64, ptr %17, align 8
  %59 = getelementptr i8, ptr %57, i64 %58
  %60 = load i8, ptr %59, align 1
  %61 = zext i8 %60 to i32
  %62 = and i32 %56, %61
  %63 = trunc i32 %62 to i8
  store i8 %63, ptr %18, align 1
  %64 = load ptr, ptr %10, align 8
  %65 = call ptr @g_byte_array_append(ptr noundef %64, ptr noundef %18, i32 noundef 1)
  call void @llvm.lifetime.end.p0(i64 1, ptr %18) #9
  br label %66

66:                                               ; preds = %51
  %67 = load i64, ptr %17, align 8
  %68 = add i64 %67, 1
  store i64 %68, ptr %17, align 8
  br label %46, !llvm.loop !10

69:                                               ; preds = %50
  %70 = load ptr, ptr %10, align 8
  %71 = call ptr @g_byte_array_free_to_bytes(ptr noundef %70)
  %72 = load ptr, ptr %6, align 8
  %73 = getelementptr inbounds nuw %struct._fvalue_t, ptr %72, i32 0, i32 1
  store ptr %71, ptr %73, align 8
  store i32 0, ptr %5, align 4
  store i32 1, ptr %16, align 4
  br label %74

74:                                               ; preds = %69, %38
  call void @llvm.lifetime.end.p0(i64 8, ptr %15) #9
  call void @llvm.lifetime.end.p0(i64 8, ptr %14) #9
  call void @llvm.lifetime.end.p0(i64 8, ptr %13) #9
  call void @llvm.lifetime.end.p0(i64 8, ptr %12) #9
  call void @llvm.lifetime.end.p0(i64 8, ptr %11) #9
  call void @llvm.lifetime.end.p0(i64 8, ptr %10) #9
  %75 = load i32, ptr %5, align 4
  ret i32 %75
}