; Function Attrs: null_pointer_is_valid sspstrong uwtable
define internal noundef i32 @bytes_bitwise_and(ptr noundef writeonly captures(none) %0, ptr noundef readonly captures(none) %1, ptr noundef readonly captures(none) %2, ptr readnone captures(none) %3) #0 {
  %5 = alloca i64, align 8
  %6 = alloca i64, align 8
  %7 = alloca i8, align 1
  call void @llvm.lifetime.start.p0(i64 8, ptr nonnull %5) #12
  call void @llvm.lifetime.start.p0(i64 8, ptr nonnull %6) #12
  %8 = getelementptr inbounds nuw i8, ptr %1, i64 8
  %9 = load ptr, ptr %8, align 8
  %10 = call ptr @g_bytes_get_data(ptr noundef %9, ptr noundef nonnull %5)
  %11 = getelementptr inbounds nuw i8, ptr %2, i64 8
  %12 = load ptr, ptr %11, align 8
  %13 = call ptr @g_bytes_get_data(ptr noundef %12, ptr noundef nonnull %6)
  %14 = load i64, ptr %5, align 8
  %15 = load i64, ptr %6, align 8
  %16 = call i64 @llvm.umin.i64(i64 %14, i64 %15)
  %17 = icmp eq i64 %16, 0
  br i1 %17, label %18, label %20

18:                                               ; preds = %4
  %19 = call ptr @g_bytes_new(ptr noundef null, i64 noundef 0)
  br label %33

20:                                               ; preds = %4
  %21 = trunc i64 %16 to i32
  %22 = call ptr @g_byte_array_sized_new(i32 noundef %21)
  br label %25

23:                                               ; preds = %25
  %24 = call ptr @g_byte_array_free_to_bytes(ptr noundef %22)
  br label %33

25:                                               ; preds = %20, %25
  %.017 = phi i64 [ 0, %20 ], [ %32, %25 ]
  call void @llvm.lifetime.start.p0(i64 1, ptr nonnull %7) #12
  %26 = getelementptr i8, ptr %10, i64 %.017
  %27 = load i8, ptr %26, align 1
  %28 = getelementptr i8, ptr %13, i64 %.017
  %29 = load i8, ptr %28, align 1
  %30 = and i8 %29, %27
  store i8 %30, ptr %7, align 1
  %31 = call ptr @g_byte_array_append(ptr noundef %22, ptr noundef nonnull %7, i32 noundef 1)
  call void @llvm.lifetime.end.p0(i64 1, ptr nonnull %7) #12
  %32 = add nuw i64 %.017, 1
  %exitcond.not = icmp eq i64 %32, %16
  br i1 %exitcond.not, label %23, label %25, !llvm.loop !8

33:                                               ; preds = %23, %18
  %.sink = phi ptr [ %24, %23 ], [ %19, %18 ]
  %34 = getelementptr inbounds nuw i8, ptr %0, i64 8
  store ptr %.sink, ptr %34, align 8
  call void @llvm.lifetime.end.p0(i64 8, ptr nonnull %6) #12
  call void @llvm.lifetime.end.p0(i64 8, ptr nonnull %5) #12
  ret i32 0
}